target datalayout = "e-m:e-p270:32:32-p271:32:32-p272:64:64-i64:64-i128:128-f80:128-n8:16:32:64-S128"
target triple = "x86_64-pc-linux-gnu"

%struct.aiScene = type { i32, ptr, i32, ptr, i32, ptr, i32, ptr, i32, ptr, i32, ptr, i32, ptr, ptr, %struct.aiString, i32, ptr, ptr }
%struct.aiString = type { i32, [1024 x i8] }
%struct.aiMesh = type { i32, i32, i32, ptr, ptr, ptr, ptr, [8 x ptr], [8 x ptr], [8 x i32], ptr, i32, ptr, i32, %struct.aiString, i32, ptr, i32, %struct.aiAABB, ptr }
%struct.aiAABB = type { %class.aiVector3t, %class.aiVector3t }
%class.aiVector3t = type { float, float, float }

@.str = private unnamed_addr constant [26 x i8] c"JoinVerticesProcess begin\00", align 1
@.str.1 = private unnamed_addr constant [30 x i8] c"JoinVerticesProcess finished \00", align 1
@.str.2 = private unnamed_addr constant [42 x i8] c"JoinVerticesProcess finished | Verts in: \00", align 1
@.str.3 = private unnamed_addr constant [7 x i8] c" out: \00", align 1
@.str.4 = private unnamed_addr constant [5 x i8] c" | ~\00", align 1

; Function Attrs: mustprogress uwtable
define void @_ZN6Assimp19JoinVerticesProcess7ExecuteEP7aiScene(ptr noundef nonnull align 8 dereferenceable(24) %0, ptr noundef %1) unnamed_addr #1 align 2 {
  %3 = alloca ptr, align 8
  %4 = alloca ptr, align 8
  %5 = alloca i32, align 4
  %6 = alloca i32, align 4
  %7 = alloca i32, align 4
  %8 = alloca i32, align 4
  %9 = alloca i32, align 4
  %10 = alloca float, align 4
  store ptr %0, ptr %3, align 8
  store ptr %1, ptr %4, align 8
  %11 = load ptr, ptr %3, align 8
  %12 = call noundef ptr @_ZN6Assimp13DefaultLogger3getEv()
  call void @_ZN6Assimp6Logger5debugEPKc(ptr noundef nonnull align 8 dereferenceable(12) %12, ptr noundef @.str)
  call void @llvm.lifetime.start.p0(i64 4, ptr %5) #17
  store i32 0, ptr %5, align 4
  %13 = call noundef zeroext i1 @_ZN6Assimp13DefaultLogger12isNullLoggerEv()
  br i1 %13, label %38, label %14

14:                                               ; preds = %2
  call void @llvm.lifetime.start.p0(i64 4, ptr %6) #17
  store i32 0, ptr %6, align 4
  br label %15

15:                                               ; preds = %34, %14
  %16 = load i32, ptr %6, align 4
  %17 = load ptr, ptr %4, align 8
  %18 = getelementptr inbounds nuw %struct.aiScene, ptr %17, i32 0, i32 2
  %19 = load i32, ptr %18, align 8
  %20 = icmp ult i32 %16, %19
  br i1 %20, label %22, label %21

21:                                               ; preds = %15
  call void @llvm.lifetime.end.p0(i64 4, ptr %6) #17
  br label %37

22:                                               ; preds = %15
  %23 = load ptr, ptr %4, align 8
  %24 = getelementptr inbounds nuw %struct.aiScene, ptr %23, i32 0, i32 3
  %25 = load ptr, ptr %24, align 8
  %26 = load i32, ptr %6, align 4
  %27 = zext i32 %26 to i64
  %28 = getelementptr inbounds nuw ptr, ptr %25, i64 %27
  %29 = load ptr, ptr %28, align 8
  %30 = getelementptr inbounds nuw %struct.aiMesh, ptr %29, i32 0, i32 1
  %31 = load i32, ptr %30, align 4
  %32 = load i32, ptr %5, align 4
  %33 = add i32 %32, %31
  store i32 %33, ptr %5, align 4
  br label %34

34:                                               ; preds = %22
  %35 = load i32, ptr %6, align 4
  %36 = add i32 %35, 1
  store i32 %36, ptr %6, align 4
  br label %15, !llvm.loop !3

37:                                               ; preds = %21
  br label %38

38:                                               ; preds = %37, %2
  call void @llvm.lifetime.start.p0(i64 4, ptr %7) #17
  store i32 0, ptr %7, align 4
  call void @llvm.lifetime.start.p0(i64 4, ptr %8) #17
  store i32 0, ptr %8, align 4
  br label %39

39:                                               ; preds = %58, %38
  %40 = load i32, ptr %8, align 4
  %41 = load ptr, ptr %4, align 8
  %42 = getelementptr inbounds nuw %struct.aiScene, ptr %41, i32 0, i32 2
  %43 = load i32, ptr %42, align 8
  %44 = icmp ult i32 %40, %43
  br i1 %44, label %46, label %45

45:                                               ; preds = %39
  call void @llvm.lifetime.end.p0(i64 4, ptr %8) #17
  br label %61

46:                                               ; preds = %39
  %47 = load ptr, ptr %4, align 8
  %48 = getelementptr inbounds nuw %struct.aiScene, ptr %47, i32 0, i32 3
  %49 = load ptr, ptr %48, align 8
  %50 = load i32, ptr %8, align 4
  %51 = zext i32 %50 to i64
  %52 = getelementptr inbounds nuw ptr, ptr %49, i64 %51
  %53 = load ptr, ptr %52, align 8
  %54 = load i32, ptr %8, align 4
  %55 = call noundef i32 @_ZN6Assimp19JoinVerticesProcess11ProcessMeshEP6aiMeshj(ptr noundef nonnull align 8 dereferenceable(24) %11, ptr noundef %53, i32 noundef %54)
  %56 = load i32, ptr %7, align 4
  %57 = add nsw i32 %56, %55
  store i32 %57, ptr %7, align 4
  br label %58

58:                                               ; preds = %46
  %59 = load i32, ptr %8, align 4
  %60 = add i32 %59, 1
  store i32 %60, ptr %8, align 4
  br label %39, !llvm.loop !5

61:                                               ; preds = %45
  %62 = load ptr, ptr %4, align 8
  %63 = getelementptr inbounds nuw %struct.aiScene, ptr %62, i32 0, i32 0
  %64 = load i32, ptr %63, align 8
  %65 = or i32 %64, 8
  store i32 %65, ptr %63, align 8
  %66 = call noundef zeroext i1 @_ZN6Assimp13DefaultLogger12isNullLoggerEv()
  br i1 %66, label %83, label %67

67:                                               ; preds = %61
  %68 = load i32, ptr %5, align 4
  %69 = load i32, ptr %7, align 4
  %70 = icmp eq i32 %68, %69
  br i1 %70, label %71, label %73

71:                                               ; preds = %67
  %72 = call noundef ptr @_ZN6Assimp13DefaultLogger3getEv()
  call void @_ZN6Assimp6Logger5debugEPKc(ptr noundef nonnull align 8 dereferenceable(12) %72, ptr noundef @.str.1)
  store i32 1, ptr %9, align 4
  br label %84

73:                                               ; preds = %67
  %74 = call noundef ptr @_ZN6Assimp13DefaultLogger3getEv()
  call void @llvm.lifetime.start.p0(i64 4, ptr %10) #17
  %75 = load i32, ptr %5, align 4
  %76 = load i32, ptr %7, align 4
  %77 = sub nsw i32 %75, %76
  %78 = sitofp i32 %77 to float
  %79 = load i32, ptr %5, align 4
  %80 = sitofp i32 %79 to float
  %81 = fdiv float %78, %80
  %82 = fmul float %81, 1.000000e+02
  store float %82, ptr %10, align 4
  call void @_ZN6Assimp6Logger4infoIJRA42_KcRiRA7_S2_S5_RA5_S2_fEEEvDpOT_(ptr noundef nonnull align 8 dereferenceable(12) %74, ptr noundef nonnull align 1 dereferenceable(42) @.str.2, ptr noundef nonnull align 4 dereferenceable(4) %5, ptr noundef nonnull align 1 dereferenceable(7) @.str.3, ptr noundef nonnull align 4 dereferenceable(4) %7, ptr noundef nonnull align 1 dereferenceable(5) @.str.4, ptr noundef nonnull align 4 dereferenceable(4) %10)
  call void @llvm.lifetime.end.p0(i64 4, ptr %10) #17
  br label %83

83:                                               ; preds = %73, %61
  store i32 0, ptr %9, align 4
  br label %84

84:                                               ; preds = %83, %71
  call void @llvm.lifetime.end.p0(i64 4, ptr %7) #17
  call void @llvm.lifetime.end.p0(i64 4, ptr %5) #17
  %85 = load i32, ptr %9, align 4
  switch i32 %85, label %87 [
    i32 0, label %86
    i32 1, label %86
  ]

86:                                               ; preds = %84, %84
  ret void

87:                                               ; preds = %84
  unreachable
}