; Function Attrs: mustprogress uwtable
define void @_ZN6Assimp19JoinVerticesProcess7ExecuteEP7aiScene(ptr noundef nonnull readnone align 8 captures(none) dereferenceable(24) %0, ptr noundef captures(none) %1) unnamed_addr #1 align 2 {
  %3 = alloca i32, align 4
  %4 = alloca i32, align 4
  %5 = alloca float, align 4
  %6 = tail call noundef ptr @_ZN6Assimp13DefaultLogger3getEv()
  tail call void @_ZN6Assimp6Logger5debugEPKc(ptr noundef nonnull align 8 dereferenceable(12) %6, ptr noundef nonnull @.str)
  call void @llvm.lifetime.start.p0(i64 4, ptr nonnull %3) #19
  store i32 0, ptr %3, align 4
  %7 = tail call noundef zeroext i1 @_ZN6Assimp13DefaultLogger12isNullLoggerEv()
  %.phi.trans.insert = getelementptr inbounds nuw i8, ptr %1, i64 16
  %.pre = load i32, ptr %.phi.trans.insert, align 8
  br i1 %7, label %._crit_edge26, label %.preheader

.preheader:                                       ; preds = %2
  %.not = icmp eq i32 %.pre, 0
  br i1 %.not, label %.loopexit, label %.lr.ph

.lr.ph:                                           ; preds = %.preheader
  %8 = getelementptr inbounds nuw i8, ptr %1, i64 24
  %9 = load ptr, ptr %8, align 8
  %wide.trip.count = zext i32 %.pre to i64
  br label %10

10:                                               ; preds = %.lr.ph, %10
  %indvars.iv = phi i64 [ 0, %.lr.ph ], [ %indvars.iv.next, %10 ]
  %11 = phi i32 [ 0, %.lr.ph ], [ %16, %10 ]
  %12 = getelementptr inbounds nuw ptr, ptr %9, i64 %indvars.iv
  %13 = load ptr, ptr %12, align 8
  %14 = getelementptr inbounds nuw i8, ptr %13, i64 4
  %15 = load i32, ptr %14, align 4
  %16 = add i32 %11, %15
  %indvars.iv.next = add nuw nsw i64 %indvars.iv, 1
  %exitcond.not = icmp eq i64 %indvars.iv.next, %wide.trip.count
  br i1 %exitcond.not, label %.loopexit, label %10, !llvm.loop !3

.loopexit:                                        ; preds = %10, %.preheader
  %.lcssa = phi i32 [ 0, %.preheader ], [ %16, %10 ]
  store i32 %.lcssa, ptr %3, align 4
  br label %._crit_edge26

._crit_edge26:                                    ; preds = %2, %.loopexit
  %17 = phi i32 [ %.lcssa, %.loopexit ], [ 0, %2 ]
  call void @llvm.lifetime.start.p0(i64 4, ptr nonnull %4) #19
  %18 = getelementptr inbounds nuw i8, ptr %1, i64 16
  %.not19 = icmp eq i32 %.pre, 0
  br i1 %.not19, label %._crit_edge, label %.lr.ph17

.lr.ph17:                                         ; preds = %._crit_edge26
  %19 = getelementptr inbounds nuw i8, ptr %1, i64 24
  br label %24

._crit_edge:                                      ; preds = %24, %._crit_edge26
  %20 = phi i32 [ 0, %._crit_edge26 ], [ %31, %24 ]
  store i32 %20, ptr %4, align 4
  %21 = load i32, ptr %1, align 8
  %22 = or i32 %21, 8
  store i32 %22, ptr %1, align 8
  %23 = tail call noundef zeroext i1 @_ZN6Assimp13DefaultLogger12isNullLoggerEv()
  br i1 %23, label %45, label %35

24:                                               ; preds = %.lr.ph17, %24
  %indvars.iv23 = phi i64 [ 0, %.lr.ph17 ], [ %indvars.iv.next24, %24 ]
  %25 = phi i32 [ 0, %.lr.ph17 ], [ %31, %24 ]
  %26 = load ptr, ptr %19, align 8
  %27 = getelementptr inbounds nuw ptr, ptr %26, i64 %indvars.iv23
  %28 = load ptr, ptr %27, align 8
  %29 = trunc nuw i64 %indvars.iv23 to i32
  %30 = tail call noundef i32 @_ZN6Assimp19JoinVerticesProcess11ProcessMeshEP6aiMeshj(ptr nonnull align 8 poison, ptr noundef %28, i32 noundef %29)
  %31 = add nsw i32 %25, %30
  %indvars.iv.next24 = add nuw nsw i64 %indvars.iv23, 1
  %32 = load i32, ptr %18, align 8
  %33 = zext i32 %32 to i64
  %34 = icmp samesign ult i64 %indvars.iv.next24, %33
  br i1 %34, label %24, label %._crit_edge, !llvm.loop !5

35:                                               ; preds = %._crit_edge
  %36 = icmp eq i32 %17, %20
  %37 = tail call noundef ptr @_ZN6Assimp13DefaultLogger3getEv()
  br i1 %36, label %38, label %39

38:                                               ; preds = %35
  tail call void @_ZN6Assimp6Logger5debugEPKc(ptr noundef nonnull align 8 dereferenceable(12) %37, ptr noundef nonnull @.str.1)
  br label %45

39:                                               ; preds = %35
  call void @llvm.lifetime.start.p0(i64 4, ptr nonnull %5) #19
  %40 = sub nsw i32 %17, %20
  %41 = sitofp i32 %40 to float
  %42 = sitofp i32 %17 to float
  %43 = fdiv float %41, %42
  %44 = fmul float %43, 1.000000e+02
  store float %44, ptr %5, align 4
  call void @_ZN6Assimp6Logger4infoIJRA42_KcRiRA7_S2_S5_RA5_S2_fEEEvDpOT_(ptr noundef nonnull align 8 dereferenceable(12) %37, ptr noundef nonnull align 1 dereferenceable(42) @.str.2, ptr noundef nonnull align 4 dereferenceable(4) %3, ptr noundef nonnull align 1 dereferenceable(7) @.str.3, ptr noundef nonnull align 4 dereferenceable(4) %4, ptr noundef nonnull align 1 dereferenceable(5) @.str.4, ptr noundef nonnull align 4 dereferenceable(4) %5)
  call void @llvm.lifetime.end.p0(i64 4, ptr nonnull %5) #19
  br label %45

45:                                               ; preds = %._crit_edge, %39, %38
  call void @llvm.lifetime.end.p0(i64 4, ptr nonnull %4) #19
  call void @llvm.lifetime.end.p0(i64 4, ptr nonnull %3) #19
  ret void
}